target datalayout = "e-m:e-p270:32:32-p271:32:32-p272:64:64-i64:64-i128:128-f80:128-n8:16:32:64-S128"
target triple = "x86_64-pc-linux-gnu"

%struct.mi_heap_s = type { ptr, ptr, i64, i32, i64, [2 x i64], %struct.mi_random_cxt_s, i64, i64, i64, ptr, i8, i8, [129 x ptr], [75 x %struct.mi_page_queue_s] }
%struct.mi_random_cxt_s = type { [16 x i32], [16 x i32], i32, i8 }
%struct.mi_page_queue_s = type { ptr, ptr, i64 }
%struct.mi_tld_s = type { i64, i8, ptr, ptr, %struct.mi_segments_tld_s, %struct.mi_stats_s }
%struct.mi_segments_tld_s = type { %struct.mi_segment_queue_s, %struct.mi_segment_queue_s, %struct.mi_page_queue_s, i64, i64, i64, i64, i64, ptr, ptr }
%struct.mi_segment_queue_s = type { ptr, ptr }
%struct.mi_stats_s = type { %struct.mi_stat_count_s, %struct.mi_stat_count_s, %struct.mi_stat_count_s, %struct.mi_stat_count_s, %struct.mi_stat_count_s, %struct.mi_stat_count_s, %struct.mi_stat_count_s, %struct.mi_stat_count_s, %struct.mi_stat_count_s, %struct.mi_stat_count_s, %struct.mi_stat_count_s, %struct.mi_stat_count_s, %struct.mi_stat_count_s, %struct.mi_stat_count_s, %struct.mi_stat_count_s, %struct.mi_stat_counter_s, %struct.mi_stat_counter_s, %struct.mi_stat_counter_s, %struct.mi_stat_counter_s, %struct.mi_stat_counter_s, %struct.mi_stat_counter_s, %struct.mi_stat_counter_s, %struct.mi_stat_counter_s, %struct.mi_stat_counter_s, %struct.mi_stat_counter_s, %struct.mi_stat_counter_s, %struct.mi_stat_counter_s, %struct.mi_stat_counter_s }
%struct.mi_stat_count_s = type { i64, i64, i64, i64 }
%struct.mi_stat_counter_s = type { i64, i64 }
%struct.mi_page_s = type { i8, i8, i16, i16, %union.mi_page_flags_s, i8, ptr, ptr, i16, i8, i8, i64, ptr, i64, i64, ptr, ptr }
%union.mi_page_flags_s = type { i8 }

@_mi_heap_empty = external hidden constant %struct.mi_heap_s, align 8

; Function Attrs: nounwind uwtable
define internal zeroext i1 @mi_heap_visit_pages(ptr noundef %0, ptr noundef %1, ptr noundef %2, ptr noundef %3) #0 {
  %5 = alloca i1, align 1
  %6 = alloca ptr, align 8
  %7 = alloca ptr, align 8
  %8 = alloca ptr, align 8
  %9 = alloca ptr, align 8
  %10 = alloca i64, align 8
  %11 = alloca i32, align 4
  %12 = alloca ptr, align 8
  %13 = alloca ptr, align 8
  %14 = alloca ptr, align 8
  store ptr %0, ptr %6, align 8, !tbaa !3
  store ptr %1, ptr %7, align 8, !tbaa !42
  store ptr %2, ptr %8, align 8, !tbaa !42
  store ptr %3, ptr %9, align 8, !tbaa !42
  %15 = load ptr, ptr %6, align 8, !tbaa !3
  %16 = icmp eq ptr %15, null
  br i1 %16, label %22, label %17

17:                                               ; preds = %4
  %18 = load ptr, ptr %6, align 8, !tbaa !3
  %19 = getelementptr inbounds nuw %struct.mi_heap_s, ptr %18, i32 0, i32 7
  %20 = load i64, ptr %19, align 8, !tbaa !45
  %21 = icmp eq i64 %20, 0
  br i1 %21, label %22, label %23

22:                                               ; preds = %17, %4
  store i1 false, ptr %5, align 1
  br label %66

23:                                               ; preds = %17
  call void @llvm.lifetime.start.p0(i64 8, ptr %10) #10
  store i64 0, ptr %10, align 8, !tbaa !39
  br label %24

24:                                               ; preds = %60, %23
  %25 = load i64, ptr %10, align 8, !tbaa !39
  %26 = icmp ule i64 %25, 74
  br i1 %26, label %28, label %27

27:                                               ; preds = %24
  store i32 2, ptr %11, align 4
  br label %63

28:                                               ; preds = %24
  call void @llvm.lifetime.start.p0(i64 8, ptr %12) #10
  %29 = load ptr, ptr %6, align 8, !tbaa !3
  %30 = getelementptr inbounds nuw %struct.mi_heap_s, ptr %29, i32 0, i32 14
  %31 = load i64, ptr %10, align 8, !tbaa !39
  %32 = getelementptr inbounds nuw [75 x %struct.mi_page_queue_s], ptr %30, i64 0, i64 %31
  store ptr %32, ptr %12, align 8, !tbaa !46
  call void @llvm.lifetime.start.p0(i64 8, ptr %13) #10
  %33 = load ptr, ptr %12, align 8, !tbaa !46
  %34 = getelementptr inbounds nuw %struct.mi_page_queue_s, ptr %33, i32 0, i32 0
  %35 = load ptr, ptr %34, align 8, !tbaa !48
  store ptr %35, ptr %13, align 8, !tbaa !49
  br label %36

36:                                               ; preds = %55, %28
  %37 = load ptr, ptr %13, align 8, !tbaa !49
  %38 = icmp ne ptr %37, null
  br i1 %38, label %39, label %56

39:                                               ; preds = %36
  call void @llvm.lifetime.start.p0(i64 8, ptr %14) #10
  %40 = load ptr, ptr %13, align 8, !tbaa !49
  %41 = getelementptr inbounds nuw %struct.mi_page_s, ptr %40, i32 0, i32 15
  %42 = load ptr, ptr %41, align 8, !tbaa !50
  store ptr %42, ptr %14, align 8, !tbaa !49
  %43 = load ptr, ptr %7, align 8, !tbaa !42
  %44 = load ptr, ptr %6, align 8, !tbaa !3
  %45 = load ptr, ptr %12, align 8, !tbaa !46
  %46 = load ptr, ptr %13, align 8, !tbaa !49
  %47 = load ptr, ptr %8, align 8, !tbaa !42
  %48 = load ptr, ptr %9, align 8, !tbaa !42
  %49 = call zeroext i1 %43(ptr noundef %44, ptr noundef %45, ptr noundef %46, ptr noundef %47, ptr noundef %48) #9
  br i1 %49, label %51, label %50

50:                                               ; preds = %39
  store i1 false, ptr %5, align 1
  store i32 1, ptr %11, align 4
  br label %53

51:                                               ; preds = %39
  %52 = load ptr, ptr %14, align 8, !tbaa !49
  store ptr %52, ptr %13, align 8, !tbaa !49
  store i32 0, ptr %11, align 4
  br label %53

53:                                               ; preds = %51, %50
  call void @llvm.lifetime.end.p0(i64 8, ptr %14) #10
  %54 = load i32, ptr %11, align 4
  switch i32 %54, label %57 [
    i32 0, label %55
  ]

55:                                               ; preds = %53
  br label %36, !llvm.loop !55

56:                                               ; preds = %36
  store i32 0, ptr %11, align 4
  br label %57

57:                                               ; preds = %56, %53
  call void @llvm.lifetime.end.p0(i64 8, ptr %13) #10
  call void @llvm.lifetime.end.p0(i64 8, ptr %12) #10
  %58 = load i32, ptr %11, align 4
  switch i32 %58, label %63 [
    i32 0, label %59
  ]

59:                                               ; preds = %57
  br label %60

60:                                               ; preds = %59
  %61 = load i64, ptr %10, align 8, !tbaa !39
  %62 = add i64 %61, 1
  store i64 %62, ptr %10, align 8, !tbaa !39
  br label %24, !llvm.loop !56

63:                                               ; preds = %57, %27
  call void @llvm.lifetime.end.p0(i64 8, ptr %10) #10
  %64 = load i32, ptr %11, align 4
  switch i32 %64, label %68 [
    i32 2, label %65
    i32 1, label %66
  ]

65:                                               ; preds = %63
  store i1 true, ptr %5, align 1
  br label %66

66:                                               ; preds = %65, %63, %22
  %67 = load i1, ptr %5, align 1
  ret i1 %67

68:                                               ; preds = %63
  unreachable
}

; Function Attrs: inlinehint nounwind uwtable
define internal zeroext i1 @mi_heap_is_backing(ptr noundef %0) #1 {
  %2 = alloca ptr, align 8
  store ptr %0, ptr %2, align 8, !tbaa !3
  %3 = load ptr, ptr %2, align 8, !tbaa !3
  %4 = getelementptr inbounds nuw %struct.mi_heap_s, ptr %3, i32 0, i32 0
  %5 = load ptr, ptr %4, align 8, !tbaa !20
  %6 = getelementptr inbounds nuw %struct.mi_tld_s, ptr %5, i32 0, i32 2
  %7 = load ptr, ptr %6, align 8, !tbaa !21
  %8 = load ptr, ptr %2, align 8, !tbaa !3
  %9 = icmp eq ptr %7, %8
  ret i1 %9
}

; Function Attrs: inlinehint nounwind uwtable
define internal zeroext i1 @mi_heap_is_initialized(ptr noundef %0) #1 {
  %2 = alloca ptr, align 8
  store ptr %0, ptr %2, align 8, !tbaa !3
  %3 = load ptr, ptr %2, align 8, !tbaa !3
  %4 = icmp ne ptr %3, null
  br i1 %4, label %5, label %8

5:                                                ; preds = %1
  %6 = load ptr, ptr %2, align 8, !tbaa !3
  %7 = icmp ne ptr %6, @_mi_heap_empty
  br label %8

8:                                                ; preds = %5, %1
  %9 = phi i1 [ false, %1 ], [ %7, %5 ]
  ret i1 %9
}

; Function Attrs: nounwind uwtable
define internal void @mi_heap_collect_ex(ptr noundef %0, i32 noundef %1) #0 {
  %3 = alloca ptr, align 8
  %4 = alloca i32, align 4
  %5 = alloca i8, align 1
  %6 = alloca i8, align 1
  store ptr %0, ptr %3, align 8, !tbaa !3
  store i32 %1, ptr %4, align 4, !tbaa !8
  %7 = load ptr, ptr %3, align 8, !tbaa !3
  %8 = icmp eq ptr %7, null
  br i1 %8, label %12, label %9

9:                                                ; preds = %2
  %10 = load ptr, ptr %3, align 8, !tbaa !3
  %11 = call zeroext i1 @mi_heap_is_initialized(ptr noundef %10) #9
  br i1 %11, label %13, label %12

12:                                               ; preds = %9, %2
  br label %80

13:                                               ; preds = %9
  call void @llvm.lifetime.start.p0(i64 1, ptr %5) #10
  %14 = load i32, ptr %4, align 4, !tbaa !8
  %15 = icmp uge i32 %14, 1
  %16 = zext i1 %15 to i8
  store i8 %16, ptr %5, align 1, !tbaa !10
  %17 = load ptr, ptr %3, align 8, !tbaa !3
  %18 = load i8, ptr %5, align 1, !tbaa !10, !range !12, !noundef !13
  %19 = trunc i8 %18 to i1
  call void @_mi_deferred_free(ptr noundef %17, i1 noundef zeroext %19) #9
  call void @llvm.lifetime.start.p0(i64 1, ptr %6) #10
  %20 = call zeroext i1 @_mi_is_main_thread() #9
  br i1 %20, label %21, label %27

21:                                               ; preds = %13
  %22 = load ptr, ptr %3, align 8, !tbaa !3
  %23 = getelementptr inbounds nuw %struct.mi_heap_s, ptr %22, i32 0, i32 2
  %24 = load i64, ptr %23, align 8, !tbaa !14
  %25 = call i64 @_mi_thread_id() #9
  %26 = icmp eq i64 %24, %25
  br label %27

27:                                               ; preds = %21, %13
  %28 = phi i1 [ false, %13 ], [ %26, %21 ]
  %29 = zext i1 %28 to i8
  store i8 %29, ptr %6, align 1, !tbaa !10
  %30 = load i32, ptr %4, align 4, !tbaa !8
  %31 = icmp eq i32 %30, 1
  br i1 %31, label %32, label %49

32:                                               ; preds = %27
  %33 = load i8, ptr %6, align 1, !tbaa !10, !range !12, !noundef !13
  %34 = trunc i8 %33 to i1
  br i1 %34, label %35, label %49

35:                                               ; preds = %32
  %36 = load ptr, ptr %3, align 8, !tbaa !3
  %37 = call zeroext i1 @mi_heap_is_backing(ptr noundef %36) #9
  br i1 %37, label %38, label %49

38:                                               ; preds = %35
  %39 = load ptr, ptr %3, align 8, !tbaa !3
  %40 = getelementptr inbounds nuw %struct.mi_heap_s, ptr %39, i32 0, i32 11
  %41 = load i8, ptr %40, align 8, !tbaa !19, !range !12, !noundef !13
  %42 = trunc i8 %41 to i1
  br i1 %42, label %49, label %43

43:                                               ; preds = %38
  %44 = load ptr, ptr %3, align 8, !tbaa !3
  %45 = load ptr, ptr %3, align 8, !tbaa !3
  %46 = getelementptr inbounds nuw %struct.mi_heap_s, ptr %45, i32 0, i32 0
  %47 = load ptr, ptr %46, align 8, !tbaa !20
  %48 = getelementptr inbounds nuw %struct.mi_tld_s, ptr %47, i32 0, i32 4
  call void @_mi_abandoned_reclaim_all(ptr noundef %44, ptr noundef %48) #9
  br label %49

49:                                               ; preds = %43, %38, %35, %32, %27
  %50 = load i32, ptr %4, align 4, !tbaa !8
  %51 = icmp eq i32 %50, 2
  br i1 %51, label %52, label %55

52:                                               ; preds = %49
  %53 = load ptr, ptr %3, align 8, !tbaa !3
  %54 = call zeroext i1 @mi_heap_visit_pages(ptr noundef %53, ptr noundef @mi_heap_page_never_delayed_free, ptr noundef null, ptr noundef null) #9
  br label %55

55:                                               ; preds = %52, %49
  %56 = load ptr, ptr %3, align 8, !tbaa !3
  call void @_mi_heap_delayed_free_all(ptr noundef %56) #9
  %57 = load ptr, ptr %3, align 8, !tbaa !3
  %58 = load i8, ptr %5, align 1, !tbaa !10, !range !12, !noundef !13
  %59 = trunc i8 %58 to i1
  call void @_mi_heap_collect_retired(ptr noundef %57, i1 noundef zeroext %59) #9
  %60 = load ptr, ptr %3, align 8, !tbaa !3
  %61 = call zeroext i1 @mi_heap_visit_pages(ptr noundef %60, ptr noundef @mi_heap_page_collect, ptr noundef %4, ptr noundef null) #9
  %62 = load i32, ptr %4, align 4, !tbaa !8
  %63 = icmp eq i32 %62, 1
  %64 = load ptr, ptr %3, align 8, !tbaa !3
  %65 = getelementptr inbounds nuw %struct.mi_heap_s, ptr %64, i32 0, i32 0
  %66 = load ptr, ptr %65, align 8, !tbaa !20
  %67 = getelementptr inbounds nuw %struct.mi_tld_s, ptr %66, i32 0, i32 4
  call void @_mi_segments_collect(i1 noundef zeroext %63, ptr noundef %67) #9
  %68 = load i8, ptr %5, align 1, !tbaa !10, !range !12, !noundef !13
  %69 = trunc i8 %68 to i1
  br i1 %69, label %70, label %77

70:                                               ; preds = %55
  %71 = load i8, ptr %6, align 1, !tbaa !10, !range !12, !noundef !13
  %72 = trunc i8 %71 to i1
  br i1 %72, label %73, label %77

73:                                               ; preds = %70
  %74 = load ptr, ptr %3, align 8, !tbaa !3
  %75 = call zeroext i1 @mi_heap_is_backing(ptr noundef %74) #9
  br i1 %75, label %76, label %77

76:                                               ; preds = %73
  call void @_mi_thread_data_collect() #9
  br label %77

77:                                               ; preds = %76, %73, %70, %55
  %78 = load i32, ptr %4, align 4, !tbaa !8
  %79 = icmp eq i32 %78, 1
  call void @_mi_arenas_collect(i1 noundef zeroext %79) #9
  call void @llvm.lifetime.end.p0(i64 1, ptr %6) #10
  call void @llvm.lifetime.end.p0(i64 1, ptr %5) #10
  br label %80

80:                                               ; preds = %77, %12
  ret void
}